target datalayout = "e-m:e-p270:32:32-p271:32:32-p272:64:64-i64:64-i128:128-f80:128-n8:16:32:64-S128"
target triple = "x86_64-pc-linux-gnu"

%class.mpq = type { %class.mpz, %class.mpz }
%class.mpz = type { i32, i8, ptr }
%class.mpbq = type <{ %class.mpz, i32, [4 x i8] }>
%class.mpbq_manager = type { ptr, %class.mpz, %class.mpz, %class.mpbq, %class.mpz, %class.mpz, %class.mpz, %class.mpbq, %class.mpbq, %class.mpz, %class.mpz, %class.mpz }

; Function Attrs: mustprogress nounwind uwtable
define linkonce_odr hidden noundef i32 @_ZN11mpz_managerILb0EE4signERK3mpz(ptr noundef nonnull align 8 dereferenceable(16) %0) #6 comdat align 2 {
  %2 = alloca ptr, align 8
  store ptr %0, ptr %2, align 8, !tbaa !10
  %3 = load ptr, ptr %2, align 8, !tbaa !10
  %4 = getelementptr inbounds nuw %class.mpz, ptr %3, i32 0, i32 0
  %5 = load i32, ptr %4, align 8, !tbaa !24
  ret i32 %5
}

; Function Attrs: mustprogress uwtable
define linkonce_odr hidden noundef zeroext i1 @_ZN11mpz_managerILb0EE7is_zeroERK3mpz(ptr noundef nonnull align 8 dereferenceable(16) %0) #4 comdat align 2 {
  %2 = alloca ptr, align 8
  store ptr %0, ptr %2, align 8, !tbaa !10
  %3 = load ptr, ptr %2, align 8, !tbaa !10
  %4 = call noundef i32 @_ZN11mpz_managerILb0EE4signERK3mpz(ptr noundef nonnull align 8 dereferenceable(16) %3)
  %5 = icmp eq i32 %4, 0
  ret i1 %5
}

; Function Attrs: mustprogress nounwind uwtable
define linkonce_odr hidden void @_ZN3mpz3setEi(ptr noundef nonnull align 8 dereferenceable(16) %0, i32 noundef %1) #6 comdat align 2 {
  %3 = alloca ptr, align 8
  %4 = alloca i32, align 4
  store ptr %0, ptr %3, align 8, !tbaa !10
  store i32 %1, ptr %4, align 4, !tbaa !12
  %5 = load ptr, ptr %3, align 8
  %6 = load i32, ptr %4, align 4, !tbaa !12
  %7 = getelementptr inbounds nuw %class.mpz, ptr %5, i32 0, i32 0
  store i32 %6, ptr %7, align 8, !tbaa !24
  %8 = getelementptr inbounds nuw %class.mpz, ptr %5, i32 0, i32 1
  %9 = load i8, ptr %8, align 4
  %10 = and i8 %9, -2
  %11 = or i8 %10, 0
  store i8 %11, ptr %8, align 4
  ret void
}

; Function Attrs: inlinehint mustprogress nounwind uwtable
define linkonce_odr hidden noundef zeroext i1 @_ZNK3mpz8is_smallEv(ptr noundef nonnull align 8 dereferenceable(16) %0) #9 comdat align 2 {
  %2 = alloca ptr, align 8
  store ptr %0, ptr %2, align 8, !tbaa !10
  %3 = load ptr, ptr %2, align 8
  %4 = getelementptr inbounds nuw %class.mpz, ptr %3, i32 0, i32 1
  %5 = load i8, ptr %4, align 4
  %6 = and i8 %5, 1
  %7 = zext i8 %6 to i32
  %8 = icmp eq i32 %7, 0
  ret i1 %8
}

; Function Attrs: mustprogress uwtable
define hidden void @_ZN12mpbq_manager9normalizeER4mpbq(ptr noundef nonnull align 8 dereferenceable(208) %0, ptr noundef nonnull align 8 dereferenceable(20) %1) #4 align 2 {
  %3 = alloca ptr, align 8
  %4 = alloca ptr, align 8
  %5 = alloca i32, align 4
  store ptr %0, ptr %3, align 8, !tbaa !20
  store ptr %1, ptr %4, align 8, !tbaa !3
  %6 = load ptr, ptr %3, align 8
  %7 = load ptr, ptr %4, align 8, !tbaa !3
  %8 = getelementptr inbounds nuw %class.mpbq, ptr %7, i32 0, i32 1
  %9 = load i32, ptr %8, align 8, !tbaa !14
  %10 = icmp eq i32 %9, 0
  br i1 %10, label %11, label %12

11:                                               ; preds = %2
  br label %45

12:                                               ; preds = %2
  %13 = load ptr, ptr %4, align 8, !tbaa !3
  %14 = getelementptr inbounds nuw %class.mpbq, ptr %13, i32 0, i32 0
  %15 = call noundef zeroext i1 @_ZN11mpz_managerILb0EE7is_zeroERK3mpz(ptr noundef nonnull align 8 dereferenceable(16) %14)
  br i1 %15, label %16, label %19

16:                                               ; preds = %12
  %17 = load ptr, ptr %4, align 8, !tbaa !3
  %18 = getelementptr inbounds nuw %class.mpbq, ptr %17, i32 0, i32 1
  store i32 0, ptr %18, align 8, !tbaa !14
  br label %45

19:                                               ; preds = %12
  call void @llvm.lifetime.start.p0(i64 4, ptr %5) #3
  %20 = getelementptr inbounds nuw %class.mpbq_manager, ptr %6, i32 0, i32 0
  %21 = load ptr, ptr %20, align 8, !tbaa !26
  %22 = load ptr, ptr %4, align 8, !tbaa !3
  %23 = getelementptr inbounds nuw %class.mpbq, ptr %22, i32 0, i32 0
  %24 = call noundef i32 @_ZN11mpz_managerILb0EE21power_of_two_multipleERK3mpz(ptr noundef nonnull align 8 dereferenceable(600) %21, ptr noundef nonnull align 8 dereferenceable(16) %23)
  store i32 %24, ptr %5, align 4, !tbaa !12
  %25 = load i32, ptr %5, align 4, !tbaa !12
  %26 = load ptr, ptr %4, align 8, !tbaa !3
  %27 = getelementptr inbounds nuw %class.mpbq, ptr %26, i32 0, i32 1
  %28 = load i32, ptr %27, align 8, !tbaa !14
  %29 = icmp ugt i32 %25, %28
  br i1 %29, label %30, label %34

30:                                               ; preds = %19
  %31 = load ptr, ptr %4, align 8, !tbaa !3
  %32 = getelementptr inbounds nuw %class.mpbq, ptr %31, i32 0, i32 1
  %33 = load i32, ptr %32, align 8, !tbaa !14
  store i32 %33, ptr %5, align 4, !tbaa !12
  br label %34

34:                                               ; preds = %30, %19
  %35 = getelementptr inbounds nuw %class.mpbq_manager, ptr %6, i32 0, i32 0
  %36 = load ptr, ptr %35, align 8, !tbaa !26
  %37 = load ptr, ptr %4, align 8, !tbaa !3
  %38 = getelementptr inbounds nuw %class.mpbq, ptr %37, i32 0, i32 0
  %39 = load i32, ptr %5, align 4, !tbaa !12
  call void @_ZN11mpz_managerILb0EE13machine_div2kER3mpzj(ptr noundef nonnull align 8 dereferenceable(600) %36, ptr noundef nonnull align 8 dereferenceable(16) %38, i32 noundef %39)
  %40 = load i32, ptr %5, align 4, !tbaa !12
  %41 = load ptr, ptr %4, align 8, !tbaa !3
  %42 = getelementptr inbounds nuw %class.mpbq, ptr %41, i32 0, i32 1
  %43 = load i32, ptr %42, align 8, !tbaa !14
  %44 = sub i32 %43, %40
  store i32 %44, ptr %42, align 8, !tbaa !14
  call void @llvm.lifetime.end.p0(i64 4, ptr %5) #3
  br label %45

45:                                               ; preds = %34, %16, %11
  ret void
}

; Function Attrs: mustprogress uwtable
define linkonce_odr hidden void @_ZN11mpz_managerILb0EE3setER3mpzRKS1_(ptr noundef nonnull align 8 dereferenceable(600) %0, ptr noundef nonnull align 8 dereferenceable(16) %1, ptr noundef nonnull align 8 dereferenceable(16) %2) #4 comdat align 2 {
  %4 = alloca ptr, align 8
  %5 = alloca ptr, align 8
  %6 = alloca ptr, align 8
  store ptr %0, ptr %4, align 8, !tbaa !22
  store ptr %1, ptr %5, align 8, !tbaa !10
  store ptr %2, ptr %6, align 8, !tbaa !10
  %7 = load ptr, ptr %4, align 8
  %8 = load ptr, ptr %6, align 8, !tbaa !10
  %9 = call noundef zeroext i1 @_ZN11mpz_managerILb0EE8is_smallERK3mpz(ptr noundef nonnull align 8 dereferenceable(16) %8)
  br i1 %9, label %10, label %14

10:                                               ; preds = %3
  %11 = load ptr, ptr %5, align 8, !tbaa !10
  %12 = load ptr, ptr %6, align 8, !tbaa !10
  %13 = call noundef i32 @_ZNK3mpz5valueEv(ptr noundef nonnull align 8 dereferenceable(16) %12)
  call void @_ZN3mpz3setEi(ptr noundef nonnull align 8 dereferenceable(16) %11, i32 noundef %13)
  br label %17

14:                                               ; preds = %3
  %15 = load ptr, ptr %5, align 8, !tbaa !10
  %16 = load ptr, ptr %6, align 8, !tbaa !10
  call void @_ZN11mpz_managerILb0EE7big_setER3mpzRKS1_(ptr noundef nonnull align 8 dereferenceable(600) %7, ptr noundef nonnull align 8 dereferenceable(16) %15, ptr noundef nonnull align 8 dereferenceable(16) %16)
  br label %17

17:                                               ; preds = %14, %10
  ret void
}

; Function Attrs: inlinehint mustprogress nounwind uwtable
define linkonce_odr hidden noundef i32 @_ZNK3mpz5valueEv(ptr noundef nonnull align 8 dereferenceable(16) %0) #9 comdat align 2 {
  %2 = alloca ptr, align 8
  store ptr %0, ptr %2, align 8, !tbaa !10
  %3 = load ptr, ptr %2, align 8
  %4 = getelementptr inbounds nuw %class.mpz, ptr %3, i32 0, i32 0
  %5 = load i32, ptr %4, align 8, !tbaa !24
  ret i32 %5
}

; Function Attrs: mustprogress nounwind uwtable
define linkonce_odr hidden noundef zeroext i1 @_ZN11mpz_managerILb0EE8is_smallERK3mpz(ptr noundef nonnull align 8 dereferenceable(16) %0) #6 comdat align 2 {
  %2 = alloca ptr, align 8
  store ptr %0, ptr %2, align 8, !tbaa !10
  %3 = load ptr, ptr %2, align 8, !tbaa !10
  %4 = call noundef zeroext i1 @_ZNK3mpz8is_smallEv(ptr noundef nonnull align 8 dereferenceable(16) %3)
  ret i1 %4
}

; Function Attrs: mustprogress uwtable
define linkonce_odr hidden void @_ZN12mpbq_manager3setER4mpbqRK3mpzj(ptr noundef nonnull align 8 dereferenceable(208) %0, ptr noundef nonnull align 8 dereferenceable(20) %1, ptr noundef nonnull align 8 dereferenceable(16) %2, i32 noundef %3) #4 comdat align 2 {
  %5 = alloca ptr, align 8
  %6 = alloca ptr, align 8
  %7 = alloca ptr, align 8
  %8 = alloca i32, align 4
  store ptr %0, ptr %5, align 8, !tbaa !20
  store ptr %1, ptr %6, align 8, !tbaa !3
  store ptr %2, ptr %7, align 8, !tbaa !10
  store i32 %3, ptr %8, align 4, !tbaa !12
  %9 = load ptr, ptr %5, align 8
  %10 = getelementptr inbounds nuw %class.mpbq_manager, ptr %9, i32 0, i32 0
  %11 = load ptr, ptr %10, align 8, !tbaa !26
  %12 = load ptr, ptr %6, align 8, !tbaa !3
  %13 = getelementptr inbounds nuw %class.mpbq, ptr %12, i32 0, i32 0
  %14 = load ptr, ptr %7, align 8, !tbaa !10
  call void @_ZN11mpz_managerILb0EE3setER3mpzRKS1_(ptr noundef nonnull align 8 dereferenceable(600) %11, ptr noundef nonnull align 8 dereferenceable(16) %13, ptr noundef nonnull align 8 dereferenceable(16) %14)
  %15 = load i32, ptr %8, align 4, !tbaa !12
  %16 = load ptr, ptr %6, align 8, !tbaa !3
  %17 = getelementptr inbounds nuw %class.mpbq, ptr %16, i32 0, i32 1
  store i32 %15, ptr %17, align 8, !tbaa !14
  %18 = load ptr, ptr %6, align 8, !tbaa !3
  call void @_ZN12mpbq_manager9normalizeER4mpbq(ptr noundef nonnull align 8 dereferenceable(208) %9, ptr noundef nonnull align 8 dereferenceable(20) %18)
  ret void
}

; Function Attrs: mustprogress uwtable
define linkonce_odr hidden void @_ZN12mpbq_manager3setER4mpbqRK3mpz(ptr noundef nonnull align 8 dereferenceable(208) %0, ptr noundef nonnull align 8 dereferenceable(20) %1, ptr noundef nonnull align 8 dereferenceable(16) %2) #4 comdat align 2 {
  %4 = alloca ptr, align 8
  %5 = alloca ptr, align 8
  %6 = alloca ptr, align 8
  store ptr %0, ptr %4, align 8, !tbaa !20
  store ptr %1, ptr %5, align 8, !tbaa !3
  store ptr %2, ptr %6, align 8, !tbaa !10
  %7 = load ptr, ptr %4, align 8
  %8 = getelementptr inbounds nuw %class.mpbq_manager, ptr %7, i32 0, i32 0
  %9 = load ptr, ptr %8, align 8, !tbaa !26
  %10 = load ptr, ptr %5, align 8, !tbaa !3
  %11 = getelementptr inbounds nuw %class.mpbq, ptr %10, i32 0, i32 0
  %12 = load ptr, ptr %6, align 8, !tbaa !10
  call void @_ZN11mpz_managerILb0EE3setER3mpzRKS1_(ptr noundef nonnull align 8 dereferenceable(600) %9, ptr noundef nonnull align 8 dereferenceable(16) %11, ptr noundef nonnull align 8 dereferenceable(16) %12)
  %13 = load ptr, ptr %5, align 8, !tbaa !3
  %14 = getelementptr inbounds nuw %class.mpbq, ptr %13, i32 0, i32 1
  store i32 0, ptr %14, align 8, !tbaa !14
  ret void
}

; Function Attrs: mustprogress nounwind uwtable
define linkonce_odr hidden noundef zeroext i1 @_ZN11mpz_managerILb0EE6is_oneERK3mpz(ptr noundef nonnull align 8 dereferenceable(16) %0) #6 comdat align 2 {
  %2 = alloca ptr, align 8
  store ptr %0, ptr %2, align 8, !tbaa !10
  %3 = load ptr, ptr %2, align 8, !tbaa !10
  %4 = call noundef zeroext i1 @_ZN11mpz_managerILb0EE8is_smallERK3mpz(ptr noundef nonnull align 8 dereferenceable(16) %3)
  br i1 %4, label %5, label %9

5:                                                ; preds = %1
  %6 = load ptr, ptr %2, align 8, !tbaa !10
  %7 = call noundef i32 @_ZNK3mpz5valueEv(ptr noundef nonnull align 8 dereferenceable(16) %6)
  %8 = icmp eq i32 %7, 1
  br label %9

9:                                                ; preds = %5, %1
  %10 = phi i1 [ false, %1 ], [ %8, %5 ]
  ret i1 %10
}

; Function Attrs: mustprogress nounwind uwtable
define linkonce_odr hidden noundef nonnull align 8 dereferenceable(16) ptr @_ZNK3mpq11denominatorEv(ptr noundef nonnull align 8 dereferenceable(32) %0) #6 comdat align 2 {
  %2 = alloca ptr, align 8
  store ptr %0, ptr %2, align 8, !tbaa !38
  %3 = load ptr, ptr %2, align 8
  %4 = getelementptr inbounds nuw %class.mpq, ptr %3, i32 0, i32 1
  ret ptr %4
}

; Function Attrs: mustprogress nounwind uwtable
define linkonce_odr hidden noundef nonnull align 8 dereferenceable(16) ptr @_ZNK3mpq9numeratorEv(ptr noundef nonnull align 8 dereferenceable(32) %0) #6 comdat align 2 {
  %2 = alloca ptr, align 8
  store ptr %0, ptr %2, align 8, !tbaa !38
  %3 = load ptr, ptr %2, align 8
  %4 = getelementptr inbounds nuw %class.mpq, ptr %3, i32 0, i32 0
  ret ptr %4
}

; Function Attrs: mustprogress uwtable
define hidden noundef zeroext i1 @_ZN12mpbq_manager7to_mpbqERK3mpqR4mpbq(ptr noundef nonnull align 8 dereferenceable(208) %0, ptr noundef nonnull align 8 dereferenceable(32) %1, ptr noundef nonnull align 8 dereferenceable(20) %2) #4 align 2 {
  %4 = alloca i1, align 1
  %5 = alloca ptr, align 8
  %6 = alloca ptr, align 8
  %7 = alloca ptr, align 8
  %8 = alloca ptr, align 8
  %9 = alloca ptr, align 8
  %10 = alloca i32, align 4
  %11 = alloca i32, align 4
  %12 = alloca i32, align 4
  %13 = alloca i32, align 4
  store ptr %0, ptr %5, align 8, !tbaa !20
  store ptr %1, ptr %6, align 8, !tbaa !38
  store ptr %2, ptr %7, align 8, !tbaa !3
  %14 = load ptr, ptr %5, align 8
  call void @llvm.lifetime.start.p0(i64 8, ptr %8) #3
  %15 = load ptr, ptr %6, align 8, !tbaa !38
  %16 = call noundef nonnull align 8 dereferenceable(16) ptr @_ZNK3mpq9numeratorEv(ptr noundef nonnull align 8 dereferenceable(32) %15)
  store ptr %16, ptr %8, align 8, !tbaa !10
  call void @llvm.lifetime.start.p0(i64 8, ptr %9) #3
  %17 = load ptr, ptr %6, align 8, !tbaa !38
  %18 = call noundef nonnull align 8 dereferenceable(16) ptr @_ZNK3mpq11denominatorEv(ptr noundef nonnull align 8 dereferenceable(32) %17)
  store ptr %18, ptr %9, align 8, !tbaa !10
  call void @llvm.lifetime.start.p0(i64 4, ptr %10) #3
  %19 = load ptr, ptr %9, align 8, !tbaa !10
  %20 = call noundef zeroext i1 @_ZN11mpz_managerILb0EE6is_oneERK3mpz(ptr noundef nonnull align 8 dereferenceable(16) %19)
  br i1 %20, label %21, label %24

21:                                               ; preds = %3
  %22 = load ptr, ptr %7, align 8, !tbaa !3
  %23 = load ptr, ptr %8, align 8, !tbaa !10
  call void @_ZN12mpbq_manager3setER4mpbqRK3mpz(ptr noundef nonnull align 8 dereferenceable(208) %14, ptr noundef nonnull align 8 dereferenceable(20) %22, ptr noundef nonnull align 8 dereferenceable(16) %23)
  store i1 true, ptr %4, align 1
  store i32 1, ptr %11, align 4
  br label %43

24:                                               ; preds = %3
  %25 = getelementptr inbounds nuw %class.mpbq_manager, ptr %14, i32 0, i32 0
  %26 = load ptr, ptr %25, align 8, !tbaa !26
  %27 = load ptr, ptr %9, align 8, !tbaa !10
  %28 = call noundef zeroext i1 @_ZN11mpz_managerILb0EE15is_power_of_twoERK3mpzRj(ptr noundef nonnull align 8 dereferenceable(600) %26, ptr noundef nonnull align 8 dereferenceable(16) %27, ptr noundef nonnull align 4 dereferenceable(4) %10)
  br i1 %28, label %29, label %34

29:                                               ; preds = %24
  call void @llvm.lifetime.start.p0(i64 4, ptr %12) #3
  %30 = load i32, ptr %10, align 4, !tbaa !12
  store i32 %30, ptr %12, align 4, !tbaa !12
  %31 = load ptr, ptr %7, align 8, !tbaa !3
  %32 = load ptr, ptr %8, align 8, !tbaa !10
  %33 = load i32, ptr %12, align 4, !tbaa !12
  call void @_ZN12mpbq_manager3setER4mpbqRK3mpzj(ptr noundef nonnull align 8 dereferenceable(208) %14, ptr noundef nonnull align 8 dereferenceable(20) %31, ptr noundef nonnull align 8 dereferenceable(16) %32, i32 noundef %33)
  store i1 true, ptr %4, align 1
  store i32 1, ptr %11, align 4
  call void @llvm.lifetime.end.p0(i64 4, ptr %12) #3
  br label %43

34:                                               ; preds = %24
  call void @llvm.lifetime.start.p0(i64 4, ptr %13) #3
  %35 = getelementptr inbounds nuw %class.mpbq_manager, ptr %14, i32 0, i32 0
  %36 = load ptr, ptr %35, align 8, !tbaa !26
  %37 = load ptr, ptr %9, align 8, !tbaa !10
  %38 = call noundef i32 @_ZN11mpz_managerILb0EE4log2ERK3mpz(ptr noundef nonnull align 8 dereferenceable(600) %36, ptr noundef nonnull align 8 dereferenceable(16) %37)
  store i32 %38, ptr %13, align 4, !tbaa !12
  %39 = load ptr, ptr %7, align 8, !tbaa !3
  %40 = load ptr, ptr %8, align 8, !tbaa !10
  %41 = load i32, ptr %13, align 4, !tbaa !12
  %42 = add i32 %41, 1
  call void @_ZN12mpbq_manager3setER4mpbqRK3mpzj(ptr noundef nonnull align 8 dereferenceable(208) %14, ptr noundef nonnull align 8 dereferenceable(20) %39, ptr noundef nonnull align 8 dereferenceable(16) %40, i32 noundef %42)
  store i1 false, ptr %4, align 1
  store i32 1, ptr %11, align 4
  call void @llvm.lifetime.end.p0(i64 4, ptr %13) #3
  br label %43

43:                                               ; preds = %34, %29, %21
  call void @llvm.lifetime.end.p0(i64 4, ptr %10) #3
  call void @llvm.lifetime.end.p0(i64 8, ptr %9) #3
  call void @llvm.lifetime.end.p0(i64 8, ptr %8) #3
  %44 = load i1, ptr %4, align 1
  ret i1 %44
}