; Function Attrs: mustprogress uwtable
define hidden noundef zeroext i1 @_ZN12mpbq_manager7to_mpbqERK3mpqR4mpbq(ptr noundef nonnull readonly align 8 captures(none) dereferenceable(208) %0, ptr noundef nonnull align 8 dereferenceable(32) %1, ptr noundef nonnull align 8 dereferenceable(20) %2) local_unnamed_addr #3 align 2 {
  %4 = alloca i32, align 4
  %5 = getelementptr inbounds nuw i8, ptr %1, i64 16
  call void @llvm.lifetime.start.p0(i64 4, ptr nonnull %4) #18
  %6 = getelementptr inbounds nuw i8, ptr %1, i64 20
  %7 = load i8, ptr %6, align 4
  %8 = and i8 %7, 1
  %9 = icmp eq i8 %8, 0
  %10 = load i32, ptr %5, align 8
  %11 = icmp eq i32 %10, 1
  %12 = select i1 %9, i1 %11, i1 false
  br i1 %12, label %13, label %26

13:                                               ; preds = %3
  %14 = getelementptr inbounds nuw i8, ptr %1, i64 4
  %15 = load i8, ptr %14, align 4
  %16 = and i8 %15, 1
  %17 = icmp eq i8 %16, 0
  br i1 %17, label %18, label %23

18:                                               ; preds = %13
  %19 = load i32, ptr %1, align 8, !tbaa !3
  store i32 %19, ptr %2, align 8, !tbaa !3
  %20 = getelementptr inbounds nuw i8, ptr %2, i64 4
  %21 = load i8, ptr %20, align 4
  %22 = and i8 %21, -2
  store i8 %22, ptr %20, align 4
  br label %_ZN12mpbq_manager3setER4mpbqRK3mpz.exit

23:                                               ; preds = %13
  %24 = load ptr, ptr %0, align 8, !tbaa !26
  tail call void @_ZN11mpz_managerILb0EE7big_setER3mpzRKS1_(ptr noundef nonnull align 8 dereferenceable(600) %24, ptr noundef nonnull align 8 dereferenceable(20) %2, ptr noundef nonnull align 8 dereferenceable(16) %1)
  br label %_ZN12mpbq_manager3setER4mpbqRK3mpz.exit

_ZN12mpbq_manager3setER4mpbqRK3mpz.exit:          ; preds = %18, %23
  %25 = getelementptr inbounds nuw i8, ptr %2, i64 16
  store i32 0, ptr %25, align 8, !tbaa !13
  br label %_ZN12mpbq_manager3setER4mpbqRK3mpzj.exit

26:                                               ; preds = %3
  %27 = load ptr, ptr %0, align 8, !tbaa !26
  %28 = call noundef zeroext i1 @_ZN11mpz_managerILb0EE15is_power_of_twoERK3mpzRj(ptr noundef nonnull align 8 dereferenceable(600) %27, ptr noundef nonnull align 8 dereferenceable(16) %5, ptr noundef nonnull align 4 dereferenceable(4) %4)
  br i1 %28, label %29, label %54

29:                                               ; preds = %26
  %30 = load i32, ptr %4, align 4, !tbaa !22
  %31 = getelementptr inbounds nuw i8, ptr %1, i64 4
  %32 = load i8, ptr %31, align 4
  %33 = and i8 %32, 1
  %34 = icmp eq i8 %33, 0
  br i1 %34, label %35, label %40

35:                                               ; preds = %29
  %36 = load i32, ptr %1, align 8, !tbaa !3
  store i32 %36, ptr %2, align 8, !tbaa !3
  %37 = getelementptr inbounds nuw i8, ptr %2, i64 4
  %38 = load i8, ptr %37, align 4
  %39 = and i8 %38, -2
  store i8 %39, ptr %37, align 4
  br label %_ZN11mpz_managerILb0EE3setER3mpzRKS1_.exit.i

40:                                               ; preds = %29
  %41 = load ptr, ptr %0, align 8, !tbaa !26
  call void @_ZN11mpz_managerILb0EE7big_setER3mpzRKS1_(ptr noundef nonnull align 8 dereferenceable(600) %41, ptr noundef nonnull align 8 dereferenceable(20) %2, ptr noundef nonnull align 8 dereferenceable(16) %1)
  br label %_ZN11mpz_managerILb0EE3setER3mpzRKS1_.exit.i

_ZN11mpz_managerILb0EE3setER3mpzRKS1_.exit.i:     ; preds = %40, %35
  %42 = getelementptr inbounds nuw i8, ptr %2, i64 16
  store i32 %30, ptr %42, align 8, !tbaa !13
  %43 = icmp eq i32 %30, 0
  br i1 %43, label %_ZN12mpbq_manager3setER4mpbqRK3mpzj.exit, label %44

44:                                               ; preds = %_ZN11mpz_managerILb0EE3setER3mpzRKS1_.exit.i
  %45 = load i32, ptr %2, align 8, !tbaa !3
  %46 = icmp eq i32 %45, 0
  br i1 %46, label %.sink.split.i.i, label %47

47:                                               ; preds = %44
  %48 = load ptr, ptr %0, align 8, !tbaa !26
  %49 = call noundef i32 @_ZN11mpz_managerILb0EE21power_of_two_multipleERK3mpz(ptr noundef nonnull align 8 dereferenceable(600) %48, ptr noundef nonnull align 8 dereferenceable(20) %2)
  %50 = load i32, ptr %42, align 8, !tbaa !13
  %spec.select.i.i = call i32 @llvm.umin.i32(i32 %49, i32 %50)
  %51 = load ptr, ptr %0, align 8, !tbaa !26
  call void @_ZN11mpz_managerILb0EE13machine_div2kER3mpzj(ptr noundef nonnull align 8 dereferenceable(600) %51, ptr noundef nonnull align 8 dereferenceable(20) %2, i32 noundef %spec.select.i.i)
  %52 = load i32, ptr %42, align 8, !tbaa !13
  %53 = sub i32 %52, %spec.select.i.i
  br label %.sink.split.i.i

.sink.split.i.i:                                  ; preds = %47, %44
  %.sink.i.i = phi i32 [ %53, %47 ], [ 0, %44 ]
  store i32 %.sink.i.i, ptr %42, align 8, !tbaa !13
  br label %_ZN12mpbq_manager3setER4mpbqRK3mpzj.exit

54:                                               ; preds = %26
  %55 = load ptr, ptr %0, align 8, !tbaa !26
  %56 = call noundef i32 @_ZN11mpz_managerILb0EE4log2ERK3mpz(ptr noundef nonnull align 8 dereferenceable(600) %55, ptr noundef nonnull align 8 dereferenceable(16) %5)
  %57 = add i32 %56, 1
  %58 = getelementptr inbounds nuw i8, ptr %1, i64 4
  %59 = load i8, ptr %58, align 4
  %60 = and i8 %59, 1
  %61 = icmp eq i8 %60, 0
  br i1 %61, label %62, label %67

62:                                               ; preds = %54
  %63 = load i32, ptr %1, align 8, !tbaa !3
  store i32 %63, ptr %2, align 8, !tbaa !3
  %64 = getelementptr inbounds nuw i8, ptr %2, i64 4
  %65 = load i8, ptr %64, align 4
  %66 = and i8 %65, -2
  store i8 %66, ptr %64, align 4
  br label %_ZN11mpz_managerILb0EE3setER3mpzRKS1_.exit.i14

67:                                               ; preds = %54
  %68 = load ptr, ptr %0, align 8, !tbaa !26
  call void @_ZN11mpz_managerILb0EE7big_setER3mpzRKS1_(ptr noundef nonnull align 8 dereferenceable(600) %68, ptr noundef nonnull align 8 dereferenceable(20) %2, ptr noundef nonnull align 8 dereferenceable(16) %1)
  br label %_ZN11mpz_managerILb0EE3setER3mpzRKS1_.exit.i14

_ZN11mpz_managerILb0EE3setER3mpzRKS1_.exit.i14:   ; preds = %67, %62
  %69 = getelementptr inbounds nuw i8, ptr %2, i64 16
  store i32 %57, ptr %69, align 8, !tbaa !13
  %70 = icmp eq i32 %57, 0
  br i1 %70, label %_ZN12mpbq_manager3setER4mpbqRK3mpzj.exit, label %71

71:                                               ; preds = %_ZN11mpz_managerILb0EE3setER3mpzRKS1_.exit.i14
  %72 = load i32, ptr %2, align 8, !tbaa !3
  %73 = icmp eq i32 %72, 0
  br i1 %73, label %.sink.split.i.i16, label %74

74:                                               ; preds = %71
  %75 = load ptr, ptr %0, align 8, !tbaa !26
  %76 = call noundef i32 @_ZN11mpz_managerILb0EE21power_of_two_multipleERK3mpz(ptr noundef nonnull align 8 dereferenceable(600) %75, ptr noundef nonnull align 8 dereferenceable(20) %2)
  %77 = load i32, ptr %69, align 8, !tbaa !13
  %spec.select.i.i15 = call i32 @llvm.umin.i32(i32 %76, i32 %77)
  %78 = load ptr, ptr %0, align 8, !tbaa !26
  call void @_ZN11mpz_managerILb0EE13machine_div2kER3mpzj(ptr noundef nonnull align 8 dereferenceable(600) %78, ptr noundef nonnull align 8 dereferenceable(20) %2, i32 noundef %spec.select.i.i15)
  %79 = load i32, ptr %69, align 8, !tbaa !13
  %80 = sub i32 %79, %spec.select.i.i15
  br label %.sink.split.i.i16

.sink.split.i.i16:                                ; preds = %74, %71
  %.sink.i.i17 = phi i32 [ %80, %74 ], [ 0, %71 ]
  store i32 %.sink.i.i17, ptr %69, align 8, !tbaa !13
  br label %_ZN12mpbq_manager3setER4mpbqRK3mpzj.exit

_ZN12mpbq_manager3setER4mpbqRK3mpzj.exit:         ; preds = %.sink.split.i.i16, %_ZN11mpz_managerILb0EE3setER3mpzRKS1_.exit.i14, %.sink.split.i.i, %_ZN11mpz_managerILb0EE3setER3mpzRKS1_.exit.i, %_ZN12mpbq_manager3setER4mpbqRK3mpz.exit
  %.0 = phi i1 [ true, %_ZN12mpbq_manager3setER4mpbqRK3mpz.exit ], [ true, %_ZN11mpz_managerILb0EE3setER3mpzRKS1_.exit.i ], [ true, %.sink.split.i.i ], [ false, %_ZN11mpz_managerILb0EE3setER3mpzRKS1_.exit.i14 ], [ false, %.sink.split.i.i16 ]
  call void @llvm.lifetime.end.p0(i64 4, ptr nonnull %4) #18
  ret i1 %.0
}